target datalayout = "e-m:e-p270:32:32-p271:32:32-p272:64:64-i64:64-i128:128-f80:128-n8:16:32:64-S128"
target triple = "x86_64-pc-linux-gnu"

%struct.AVRational = type { i32, i32 }
%struct.AVFrame = type { [8 x ptr], [8 x i32], ptr, i32, i32, i32, i32, i32, %struct.AVRational, i64, i64, %struct.AVRational, i32, ptr, i32, i32, [8 x ptr], ptr, i32, ptr, i32, i32, i32, i32, i32, i32, i32, i64, ptr, i32, ptr, ptr, i64, i64, i64, i64, ptr, %struct.AVChannelLayout, i64 }
%struct.AVChannelLayout = type { i32, i32, %union.anon, ptr }
%union.anon = type { i64 }

; Function Attrs: nounwind uwtable
define i32 @av_frame_ref(ptr noundef %0, ptr noundef %1) #0 {
  %3 = alloca i32, align 4
  %4 = alloca ptr, align 8
  %5 = alloca ptr, align 8
  %6 = alloca i32, align 4
  %7 = alloca i32, align 4
  %8 = alloca i32, align 4
  %9 = alloca i32, align 4
  %10 = alloca i32, align 4
  store ptr %0, ptr %4, align 8, !tbaa !4
  store ptr %1, ptr %5, align 8, !tbaa !4
  call void @llvm.lifetime.start.p0(i64 4, ptr %6) #7
  store i32 0, ptr %6, align 4, !tbaa !27
  %11 = load ptr, ptr %5, align 8, !tbaa !4
  %12 = getelementptr inbounds nuw %struct.AVFrame, ptr %11, i32 0, i32 6
  %13 = load i32, ptr %12, align 4, !tbaa !28
  %14 = load ptr, ptr %4, align 8, !tbaa !4
  %15 = getelementptr inbounds nuw %struct.AVFrame, ptr %14, i32 0, i32 6
  store i32 %13, ptr %15, align 4, !tbaa !28
  %16 = load ptr, ptr %5, align 8, !tbaa !4
  %17 = getelementptr inbounds nuw %struct.AVFrame, ptr %16, i32 0, i32 3
  %18 = load i32, ptr %17, align 8, !tbaa !43
  %19 = load ptr, ptr %4, align 8, !tbaa !4
  %20 = getelementptr inbounds nuw %struct.AVFrame, ptr %19, i32 0, i32 3
  store i32 %18, ptr %20, align 8, !tbaa !43
  %21 = load ptr, ptr %5, align 8, !tbaa !4
  %22 = getelementptr inbounds nuw %struct.AVFrame, ptr %21, i32 0, i32 4
  %23 = load i32, ptr %22, align 4, !tbaa !44
  %24 = load ptr, ptr %4, align 8, !tbaa !4
  %25 = getelementptr inbounds nuw %struct.AVFrame, ptr %24, i32 0, i32 4
  store i32 %23, ptr %25, align 4, !tbaa !44
  %26 = load ptr, ptr %5, align 8, !tbaa !4
  %27 = getelementptr inbounds nuw %struct.AVFrame, ptr %26, i32 0, i32 5
  %28 = load i32, ptr %27, align 8, !tbaa !45
  %29 = load ptr, ptr %4, align 8, !tbaa !4
  %30 = getelementptr inbounds nuw %struct.AVFrame, ptr %29, i32 0, i32 5
  store i32 %28, ptr %30, align 8, !tbaa !45
  %31 = load ptr, ptr %4, align 8, !tbaa !4
  %32 = load ptr, ptr %5, align 8, !tbaa !4
  %33 = call i32 @frame_copy_props(ptr noundef %31, ptr noundef %32, i32 noundef 0)
  store i32 %33, ptr %6, align 4, !tbaa !27
  %34 = load i32, ptr %6, align 4, !tbaa !27
  %35 = icmp slt i32 %34, 0
  br i1 %35, label %36, label %37

36:                                               ; preds = %2
  br label %247

37:                                               ; preds = %2
  %38 = load ptr, ptr %4, align 8, !tbaa !4
  %39 = getelementptr inbounds nuw %struct.AVFrame, ptr %38, i32 0, i32 37
  %40 = load ptr, ptr %5, align 8, !tbaa !4
  %41 = getelementptr inbounds nuw %struct.AVFrame, ptr %40, i32 0, i32 37
  %42 = call i32 @av_channel_layout_copy(ptr noundef %39, ptr noundef %41)
  store i32 %42, ptr %6, align 4, !tbaa !27
  %43 = load i32, ptr %6, align 4, !tbaa !27
  %44 = icmp slt i32 %43, 0
  br i1 %44, label %45, label %46

45:                                               ; preds = %37
  br label %247

46:                                               ; preds = %37
  %47 = load ptr, ptr %5, align 8, !tbaa !4
  %48 = getelementptr inbounds nuw %struct.AVFrame, ptr %47, i32 0, i32 16
  %49 = getelementptr inbounds [8 x ptr], ptr %48, i64 0, i64 0
  %50 = load ptr, ptr %49, align 8, !tbaa !53
  %51 = icmp ne ptr %50, null
  br i1 %51, label %66, label %52

52:                                               ; preds = %46
  %53 = load ptr, ptr %4, align 8, !tbaa !4
  %54 = call i32 @av_frame_get_buffer(ptr noundef %53, i32 noundef 0)
  store i32 %54, ptr %6, align 4, !tbaa !27
  %55 = load i32, ptr %6, align 4, !tbaa !27
  %56 = icmp slt i32 %55, 0
  br i1 %56, label %57, label %58

57:                                               ; preds = %52
  br label %247

58:                                               ; preds = %52
  %59 = load ptr, ptr %4, align 8, !tbaa !4
  %60 = load ptr, ptr %5, align 8, !tbaa !4
  %61 = call i32 @av_frame_copy(ptr noundef %59, ptr noundef %60)
  store i32 %61, ptr %6, align 4, !tbaa !27
  %62 = load i32, ptr %6, align 4, !tbaa !27
  %63 = icmp slt i32 %62, 0
  br i1 %63, label %64, label %65

64:                                               ; preds = %58
  br label %247

65:                                               ; preds = %58
  store i32 0, ptr %3, align 4
  store i32 1, ptr %7, align 4
  br label %250

66:                                               ; preds = %46
  call void @llvm.lifetime.start.p0(i64 4, ptr %8) #7
  store i32 0, ptr %8, align 4, !tbaa !27
  br label %67

67:                                               ; preds = %103, %66
  %68 = load i32, ptr %8, align 4, !tbaa !27
  %69 = sext i32 %68 to i64
  %70 = icmp ult i64 %69, 8
  br i1 %70, label %72, label %71

71:                                               ; preds = %67
  store i32 3, ptr %7, align 4
  br label %106

72:                                               ; preds = %67
  %73 = load ptr, ptr %5, align 8, !tbaa !4
  %74 = getelementptr inbounds nuw %struct.AVFrame, ptr %73, i32 0, i32 16
  %75 = load i32, ptr %8, align 4, !tbaa !27
  %76 = sext i32 %75 to i64
  %77 = getelementptr inbounds [8 x ptr], ptr %74, i64 0, i64 %76
  %78 = load ptr, ptr %77, align 8, !tbaa !53
  %79 = icmp ne ptr %78, null
  br i1 %79, label %81, label %80

80:                                               ; preds = %72
  br label %103

81:                                               ; preds = %72
  %82 = load ptr, ptr %5, align 8, !tbaa !4
  %83 = getelementptr inbounds nuw %struct.AVFrame, ptr %82, i32 0, i32 16
  %84 = load i32, ptr %8, align 4, !tbaa !27
  %85 = sext i32 %84 to i64
  %86 = getelementptr inbounds [8 x ptr], ptr %83, i64 0, i64 %85
  %87 = load ptr, ptr %86, align 8, !tbaa !53
  %88 = call ptr @av_buffer_ref(ptr noundef %87)
  %89 = load ptr, ptr %4, align 8, !tbaa !4
  %90 = getelementptr inbounds nuw %struct.AVFrame, ptr %89, i32 0, i32 16
  %91 = load i32, ptr %8, align 4, !tbaa !27
  %92 = sext i32 %91 to i64
  %93 = getelementptr inbounds [8 x ptr], ptr %90, i64 0, i64 %92
  store ptr %88, ptr %93, align 8, !tbaa !53
  %94 = load ptr, ptr %4, align 8, !tbaa !4
  %95 = getelementptr inbounds nuw %struct.AVFrame, ptr %94, i32 0, i32 16
  %96 = load i32, ptr %8, align 4, !tbaa !27
  %97 = sext i32 %96 to i64
  %98 = getelementptr inbounds [8 x ptr], ptr %95, i64 0, i64 %97
  %99 = load ptr, ptr %98, align 8, !tbaa !53
  %100 = icmp ne ptr %99, null
  br i1 %100, label %102, label %101

101:                                              ; preds = %81
  store i32 -12, ptr %6, align 4, !tbaa !27
  store i32 2, ptr %7, align 4
  br label %106

102:                                              ; preds = %81
  br label %103

103:                                              ; preds = %102, %80
  %104 = load i32, ptr %8, align 4, !tbaa !27
  %105 = add nsw i32 %104, 1
  store i32 %105, ptr %8, align 4, !tbaa !27
  br label %67, !llvm.loop !63

106:                                              ; preds = %101, %71
  call void @llvm.lifetime.end.p0(i64 4, ptr %8) #7
  %107 = load i32, ptr %7, align 4
  switch i32 %107, label %250 [
    i32 3, label %108
    i32 2, label %247
  ]

108:                                              ; preds = %106
  %109 = load ptr, ptr %5, align 8, !tbaa !4
  %110 = getelementptr inbounds nuw %struct.AVFrame, ptr %109, i32 0, i32 17
  %111 = load ptr, ptr %110, align 8, !tbaa !41
  %112 = icmp ne ptr %111, null
  br i1 %112, label %113, label %170

113:                                              ; preds = %108
  %114 = load ptr, ptr %5, align 8, !tbaa !4
  %115 = getelementptr inbounds nuw %struct.AVFrame, ptr %114, i32 0, i32 18
  %116 = load i32, ptr %115, align 8, !tbaa !40
  %117 = sext i32 %116 to i64
  %118 = call noalias ptr @av_calloc(i64 noundef %117, i64 noundef 8)
  %119 = load ptr, ptr %4, align 8, !tbaa !4
  %120 = getelementptr inbounds nuw %struct.AVFrame, ptr %119, i32 0, i32 17
  store ptr %118, ptr %120, align 8, !tbaa !41
  %121 = load ptr, ptr %4, align 8, !tbaa !4
  %122 = getelementptr inbounds nuw %struct.AVFrame, ptr %121, i32 0, i32 17
  %123 = load ptr, ptr %122, align 8, !tbaa !41
  %124 = icmp ne ptr %123, null
  br i1 %124, label %126, label %125

125:                                              ; preds = %113
  store i32 -12, ptr %6, align 4, !tbaa !27
  br label %247

126:                                              ; preds = %113
  %127 = load ptr, ptr %5, align 8, !tbaa !4
  %128 = getelementptr inbounds nuw %struct.AVFrame, ptr %127, i32 0, i32 18
  %129 = load i32, ptr %128, align 8, !tbaa !40
  %130 = load ptr, ptr %4, align 8, !tbaa !4
  %131 = getelementptr inbounds nuw %struct.AVFrame, ptr %130, i32 0, i32 18
  store i32 %129, ptr %131, align 8, !tbaa !40
  call void @llvm.lifetime.start.p0(i64 4, ptr %9) #7
  store i32 0, ptr %9, align 4, !tbaa !27
  br label %132

132:                                              ; preds = %164, %126
  %133 = load i32, ptr %9, align 4, !tbaa !27
  %134 = load ptr, ptr %5, align 8, !tbaa !4
  %135 = getelementptr inbounds nuw %struct.AVFrame, ptr %134, i32 0, i32 18
  %136 = load i32, ptr %135, align 8, !tbaa !40
  %137 = icmp slt i32 %133, %136
  br i1 %137, label %139, label %138

138:                                              ; preds = %132
  store i32 6, ptr %7, align 4
  br label %167

139:                                              ; preds = %132
  %140 = load ptr, ptr %5, align 8, !tbaa !4
  %141 = getelementptr inbounds nuw %struct.AVFrame, ptr %140, i32 0, i32 17
  %142 = load ptr, ptr %141, align 8, !tbaa !41
  %143 = load i32, ptr %9, align 4, !tbaa !27
  %144 = sext i32 %143 to i64
  %145 = getelementptr inbounds ptr, ptr %142, i64 %144
  %146 = load ptr, ptr %145, align 8, !tbaa !53
  %147 = call ptr @av_buffer_ref(ptr noundef %146)
  %148 = load ptr, ptr %4, align 8, !tbaa !4
  %149 = getelementptr inbounds nuw %struct.AVFrame, ptr %148, i32 0, i32 17
  %150 = load ptr, ptr %149, align 8, !tbaa !41
  %151 = load i32, ptr %9, align 4, !tbaa !27
  %152 = sext i32 %151 to i64
  %153 = getelementptr inbounds ptr, ptr %150, i64 %152
  store ptr %147, ptr %153, align 8, !tbaa !53
  %154 = load ptr, ptr %4, align 8, !tbaa !4
  %155 = getelementptr inbounds nuw %struct.AVFrame, ptr %154, i32 0, i32 17
  %156 = load ptr, ptr %155, align 8, !tbaa !41
  %157 = load i32, ptr %9, align 4, !tbaa !27
  %158 = sext i32 %157 to i64
  %159 = getelementptr inbounds ptr, ptr %156, i64 %158
  %160 = load ptr, ptr %159, align 8, !tbaa !53
  %161 = icmp ne ptr %160, null
  br i1 %161, label %163, label %162

162:                                              ; preds = %139
  store i32 -12, ptr %6, align 4, !tbaa !27
  store i32 2, ptr %7, align 4
  br label %167

163:                                              ; preds = %139
  br label %164

164:                                              ; preds = %163
  %165 = load i32, ptr %9, align 4, !tbaa !27
  %166 = add nsw i32 %165, 1
  store i32 %166, ptr %9, align 4, !tbaa !27
  br label %132, !llvm.loop !64

167:                                              ; preds = %162, %138
  call void @llvm.lifetime.end.p0(i64 4, ptr %9) #7
  %168 = load i32, ptr %7, align 4
  switch i32 %168, label %250 [
    i32 6, label %169
    i32 2, label %247
  ]

169:                                              ; preds = %167
  br label %170

170:                                              ; preds = %169, %108
  %171 = load ptr, ptr %5, align 8, !tbaa !4
  %172 = getelementptr inbounds nuw %struct.AVFrame, ptr %171, i32 0, i32 30
  %173 = load ptr, ptr %172, align 8, !tbaa !65
  %174 = icmp ne ptr %173, null
  br i1 %174, label %175, label %188

175:                                              ; preds = %170
  %176 = load ptr, ptr %5, align 8, !tbaa !4
  %177 = getelementptr inbounds nuw %struct.AVFrame, ptr %176, i32 0, i32 30
  %178 = load ptr, ptr %177, align 8, !tbaa !65
  %179 = call ptr @av_buffer_ref(ptr noundef %178)
  %180 = load ptr, ptr %4, align 8, !tbaa !4
  %181 = getelementptr inbounds nuw %struct.AVFrame, ptr %180, i32 0, i32 30
  store ptr %179, ptr %181, align 8, !tbaa !65
  %182 = load ptr, ptr %4, align 8, !tbaa !4
  %183 = getelementptr inbounds nuw %struct.AVFrame, ptr %182, i32 0, i32 30
  %184 = load ptr, ptr %183, align 8, !tbaa !65
  %185 = icmp ne ptr %184, null
  br i1 %185, label %187, label %186

186:                                              ; preds = %175
  store i32 -12, ptr %6, align 4, !tbaa !27
  br label %247

187:                                              ; preds = %175
  br label %188

188:                                              ; preds = %187, %170
  %189 = load ptr, ptr %5, align 8, !tbaa !4
  %190 = getelementptr inbounds nuw %struct.AVFrame, ptr %189, i32 0, i32 2
  %191 = load ptr, ptr %190, align 8, !tbaa !29
  %192 = load ptr, ptr %5, align 8, !tbaa !4
  %193 = getelementptr inbounds nuw %struct.AVFrame, ptr %192, i32 0, i32 0
  %194 = getelementptr inbounds [8 x ptr], ptr %193, i64 0, i64 0
  %195 = icmp ne ptr %191, %194
  br i1 %195, label %196, label %228

196:                                              ; preds = %188
  call void @llvm.lifetime.start.p0(i64 4, ptr %10) #7
  %197 = load ptr, ptr %4, align 8, !tbaa !4
  %198 = getelementptr inbounds nuw %struct.AVFrame, ptr %197, i32 0, i32 37
  %199 = getelementptr inbounds nuw %struct.AVChannelLayout, ptr %198, i32 0, i32 1
  %200 = load i32, ptr %199, align 4, !tbaa !60
  store i32 %200, ptr %10, align 4, !tbaa !27
  %201 = load i32, ptr %10, align 4, !tbaa !27
  %202 = icmp ne i32 %201, 0
  br i1 %202, label %204, label %203

203:                                              ; preds = %196
  store i32 -22, ptr %6, align 4, !tbaa !27
  store i32 2, ptr %7, align 4
  br label %225

204:                                              ; preds = %196
  %205 = load i32, ptr %10, align 4, !tbaa !27
  %206 = sext i32 %205 to i64
  %207 = call ptr @av_malloc_array(i64 noundef 8, i64 noundef %206)
  %208 = load ptr, ptr %4, align 8, !tbaa !4
  %209 = getelementptr inbounds nuw %struct.AVFrame, ptr %208, i32 0, i32 2
  store ptr %207, ptr %209, align 8, !tbaa !29
  %210 = load ptr, ptr %4, align 8, !tbaa !4
  %211 = getelementptr inbounds nuw %struct.AVFrame, ptr %210, i32 0, i32 2
  %212 = load ptr, ptr %211, align 8, !tbaa !29
  %213 = icmp ne ptr %212, null
  br i1 %213, label %215, label %214

214:                                              ; preds = %204
  store i32 -12, ptr %6, align 4, !tbaa !27
  store i32 2, ptr %7, align 4
  br label %225

215:                                              ; preds = %204
  %216 = load ptr, ptr %4, align 8, !tbaa !4
  %217 = getelementptr inbounds nuw %struct.AVFrame, ptr %216, i32 0, i32 2
  %218 = load ptr, ptr %217, align 8, !tbaa !29
  %219 = load ptr, ptr %5, align 8, !tbaa !4
  %220 = getelementptr inbounds nuw %struct.AVFrame, ptr %219, i32 0, i32 2
  %221 = load ptr, ptr %220, align 8, !tbaa !29
  %222 = load i32, ptr %10, align 4, !tbaa !27
  %223 = sext i32 %222 to i64
  %224 = mul i64 8, %223
  call void @llvm.memcpy.p0.p0.i64(ptr align 8 %218, ptr align 8 %221, i64 %224, i1 false)
  store i32 0, ptr %7, align 4
  br label %225

225:                                              ; preds = %214, %203, %215
  call void @llvm.lifetime.end.p0(i64 4, ptr %10) #7
  %226 = load i32, ptr %7, align 4
  switch i32 %226, label %250 [
    i32 0, label %227
    i32 2, label %247
  ]

227:                                              ; preds = %225
  br label %234

228:                                              ; preds = %188
  %229 = load ptr, ptr %4, align 8, !tbaa !4
  %230 = getelementptr inbounds nuw %struct.AVFrame, ptr %229, i32 0, i32 0
  %231 = getelementptr inbounds [8 x ptr], ptr %230, i64 0, i64 0
  %232 = load ptr, ptr %4, align 8, !tbaa !4
  %233 = getelementptr inbounds nuw %struct.AVFrame, ptr %232, i32 0, i32 2
  store ptr %231, ptr %233, align 8, !tbaa !29
  br label %234

234:                                              ; preds = %228, %227
  %235 = load ptr, ptr %4, align 8, !tbaa !4
  %236 = getelementptr inbounds nuw %struct.AVFrame, ptr %235, i32 0, i32 0
  %237 = getelementptr inbounds [8 x ptr], ptr %236, i64 0, i64 0
  %238 = load ptr, ptr %5, align 8, !tbaa !4
  %239 = getelementptr inbounds nuw %struct.AVFrame, ptr %238, i32 0, i32 0
  %240 = getelementptr inbounds [8 x ptr], ptr %239, i64 0, i64 0
  call void @llvm.memcpy.p0.p0.i64(ptr align 8 %237, ptr align 8 %240, i64 64, i1 false)
  %241 = load ptr, ptr %4, align 8, !tbaa !4
  %242 = getelementptr inbounds nuw %struct.AVFrame, ptr %241, i32 0, i32 1
  %243 = getelementptr inbounds [8 x i32], ptr %242, i64 0, i64 0
  %244 = load ptr, ptr %5, align 8, !tbaa !4
  %245 = getelementptr inbounds nuw %struct.AVFrame, ptr %244, i32 0, i32 1
  %246 = getelementptr inbounds [8 x i32], ptr %245, i64 0, i64 0
  call void @llvm.memcpy.p0.p0.i64(ptr align 8 %243, ptr align 8 %246, i64 32, i1 false)
  store i32 0, ptr %3, align 4
  store i32 1, ptr %7, align 4
  br label %250

247:                                              ; preds = %225, %167, %106, %186, %125, %64, %57, %45, %36
  %248 = load ptr, ptr %4, align 8, !tbaa !4
  call void @av_frame_unref(ptr noundef %248)
  %249 = load i32, ptr %6, align 4, !tbaa !27
  store i32 %249, ptr %3, align 4
  store i32 1, ptr %7, align 4
  br label %250

250:                                              ; preds = %247, %234, %225, %167, %106, %65
  call void @llvm.lifetime.end.p0(i64 4, ptr %6) #7
  %251 = load i32, ptr %3, align 4
  ret i32 %251
}