; Function Attrs: nounwind uwtable
define range(i32 -2147483648, 1) i32 @av_frame_ref(ptr noundef initializes((104, 132), (136, 164), (168, 184), (276, 300), (304, 312), (320, 324), (344, 376), (408, 416)) %0, ptr noundef %1) local_unnamed_addr #0 {
  %3 = getelementptr inbounds nuw i8, ptr %1, i64 116
  %4 = load i32, ptr %3, align 4, !tbaa !23
  %5 = getelementptr inbounds nuw i8, ptr %0, i64 116
  store i32 %4, ptr %5, align 4, !tbaa !23
  %6 = getelementptr inbounds nuw i8, ptr %1, i64 104
  %7 = load i32, ptr %6, align 8, !tbaa !35
  %8 = getelementptr inbounds nuw i8, ptr %0, i64 104
  store i32 %7, ptr %8, align 8, !tbaa !35
  %9 = getelementptr inbounds nuw i8, ptr %1, i64 108
  %10 = load i32, ptr %9, align 4, !tbaa !36
  %11 = getelementptr inbounds nuw i8, ptr %0, i64 108
  store i32 %10, ptr %11, align 4, !tbaa !36
  %12 = getelementptr inbounds nuw i8, ptr %1, i64 112
  %13 = load i32, ptr %12, align 8, !tbaa !49
  %14 = getelementptr inbounds nuw i8, ptr %0, i64 112
  store i32 %13, ptr %14, align 8, !tbaa !49
  %15 = tail call fastcc i32 @frame_copy_props(ptr noundef %0, ptr noundef %1, i32 noundef 0)
  %16 = icmp slt i32 %15, 0
  br i1 %16, label %.thread112, label %17

17:                                               ; preds = %2
  %18 = getelementptr inbounds nuw i8, ptr %0, i64 384
  %19 = getelementptr inbounds nuw i8, ptr %1, i64 384
  %20 = tail call i32 @av_channel_layout_copy(ptr noundef nonnull %18, ptr noundef nonnull %19) #8
  %21 = icmp slt i32 %20, 0
  br i1 %21, label %.thread112, label %22

22:                                               ; preds = %17
  %23 = getelementptr inbounds nuw i8, ptr %1, i64 184
  %24 = load ptr, ptr %23, align 8, !tbaa !42
  %.not = icmp eq ptr %24, null
  br i1 %.not, label %26, label %.preheader

.preheader:                                       ; preds = %22
  %25 = getelementptr inbounds nuw i8, ptr %0, i64 184
  br label %32

26:                                               ; preds = %22
  %27 = tail call i32 @av_frame_get_buffer(ptr noundef nonnull %0, i32 noundef 0)
  %28 = icmp slt i32 %27, 0
  br i1 %28, label %.thread112, label %29

29:                                               ; preds = %26
  %30 = tail call i32 @av_frame_copy(ptr noundef nonnull %0, ptr noundef nonnull %1)
  %31 = icmp slt i32 %30, 0
  br i1 %31, label %.thread112, label %85

32:                                               ; preds = %.preheader, %38
  %indvars.iv = phi i64 [ 0, %.preheader ], [ %indvars.iv.next, %38 ]
  %33 = getelementptr inbounds nuw [8 x ptr], ptr %23, i64 0, i64 %indvars.iv
  %34 = load ptr, ptr %33, align 8, !tbaa !42
  %.not86 = icmp eq ptr %34, null
  br i1 %.not86, label %38, label %35

35:                                               ; preds = %32
  %36 = tail call ptr @av_buffer_ref(ptr noundef nonnull %34) #8
  %37 = getelementptr inbounds nuw [8 x ptr], ptr %25, i64 0, i64 %indvars.iv
  store ptr %36, ptr %37, align 8, !tbaa !42
  %.not87 = icmp eq ptr %36, null
  br i1 %.not87, label %.thread112, label %38

38:                                               ; preds = %35, %32
  %indvars.iv.next = add nuw nsw i64 %indvars.iv, 1
  %exitcond.not = icmp eq i64 %indvars.iv.next, 8
  br i1 %exitcond.not, label %39, label %32, !llvm.loop !53

39:                                               ; preds = %38
  %40 = getelementptr inbounds nuw i8, ptr %1, i64 248
  %41 = load ptr, ptr %40, align 8, !tbaa !33
  %.not88 = icmp eq ptr %41, null
  br i1 %.not88, label %.thread107, label %42

42:                                               ; preds = %39
  %43 = getelementptr inbounds nuw i8, ptr %1, i64 256
  %44 = load i32, ptr %43, align 8, !tbaa !30
  %45 = sext i32 %44 to i64
  %46 = tail call noalias ptr @av_calloc(i64 noundef %45, i64 noundef 8) #8
  %47 = getelementptr inbounds nuw i8, ptr %0, i64 248
  store ptr %46, ptr %47, align 8, !tbaa !33
  %.not89 = icmp eq ptr %46, null
  br i1 %.not89, label %.thread112, label %48

48:                                               ; preds = %42
  %49 = load i32, ptr %43, align 8, !tbaa !30
  %50 = getelementptr inbounds nuw i8, ptr %0, i64 256
  store i32 %49, ptr %50, align 8, !tbaa !30
  %51 = icmp sgt i32 %49, 0
  br i1 %51, label %.lr.ph, label %.thread107

52:                                               ; preds = %.lr.ph
  %indvars.iv.next122 = add nuw nsw i64 %indvars.iv121, 1
  %53 = load i32, ptr %43, align 8, !tbaa !30
  %54 = sext i32 %53 to i64
  %55 = icmp slt i64 %indvars.iv.next122, %54
  br i1 %55, label %.lr.ph, label %.thread107, !llvm.loop !54

.lr.ph:                                           ; preds = %48, %52
  %indvars.iv121 = phi i64 [ %indvars.iv.next122, %52 ], [ 0, %48 ]
  %56 = load ptr, ptr %40, align 8, !tbaa !33
  %57 = getelementptr inbounds nuw ptr, ptr %56, i64 %indvars.iv121
  %58 = load ptr, ptr %57, align 8, !tbaa !42
  %59 = tail call ptr @av_buffer_ref(ptr noundef %58) #8
  %60 = load ptr, ptr %47, align 8, !tbaa !33
  %61 = getelementptr inbounds nuw ptr, ptr %60, i64 %indvars.iv121
  store ptr %59, ptr %61, align 8, !tbaa !42
  %.not90 = icmp eq ptr %59, null
  br i1 %.not90, label %.thread112, label %52

.thread107:                                       ; preds = %52, %48, %39
  %62 = getelementptr inbounds nuw i8, ptr %1, i64 328
  %63 = load ptr, ptr %62, align 8, !tbaa !55
  %.not91 = icmp eq ptr %63, null
  br i1 %.not91, label %67, label %64

64:                                               ; preds = %.thread107
  %65 = tail call ptr @av_buffer_ref(ptr noundef nonnull %63) #8
  %66 = getelementptr inbounds nuw i8, ptr %0, i64 328
  store ptr %65, ptr %66, align 8, !tbaa !55
  %.not92 = icmp eq ptr %65, null
  br i1 %.not92, label %.thread112, label %67

67:                                               ; preds = %64, %.thread107
  %68 = getelementptr inbounds nuw i8, ptr %1, i64 96
  %69 = load ptr, ptr %68, align 8, !tbaa !24
  %.not93 = icmp eq ptr %69, %1
  br i1 %.not93, label %80, label %70

70:                                               ; preds = %67
  %71 = getelementptr inbounds nuw i8, ptr %0, i64 388
  %72 = load i32, ptr %71, align 4, !tbaa !50
  %.not94 = icmp eq i32 %72, 0
  br i1 %.not94, label %.thread112, label %73

73:                                               ; preds = %70
  %74 = sext i32 %72 to i64
  %75 = tail call ptr @av_malloc_array(i64 noundef 8, i64 noundef %74) #8
  %76 = getelementptr inbounds nuw i8, ptr %0, i64 96
  store ptr %75, ptr %76, align 8, !tbaa !24
  %.not95 = icmp eq ptr %75, null
  br i1 %.not95, label %.thread112, label %77

77:                                               ; preds = %73
  %78 = load ptr, ptr %68, align 8, !tbaa !24
  %79 = shl nsw i64 %74, 3
  tail call void @llvm.memcpy.p0.p0.i64(ptr nonnull align 8 %75, ptr align 8 %78, i64 %79, i1 false)
  br label %82

80:                                               ; preds = %67
  %81 = getelementptr inbounds nuw i8, ptr %0, i64 96
  store ptr %0, ptr %81, align 8, !tbaa !24
  br label %82

82:                                               ; preds = %77, %80
  tail call void @llvm.memcpy.p0.p0.i64(ptr noundef nonnull align 8 dereferenceable(64) %0, ptr noundef nonnull align 8 dereferenceable(64) %1, i64 64, i1 false)
  %83 = getelementptr inbounds nuw i8, ptr %0, i64 64
  %84 = getelementptr inbounds nuw i8, ptr %1, i64 64
  tail call void @llvm.memcpy.p0.p0.i64(ptr noundef nonnull align 8 dereferenceable(32) %83, ptr noundef nonnull align 8 dereferenceable(32) %84, i64 32, i1 false)
  br label %85

.thread112:                                       ; preds = %35, %.lr.ph, %73, %70, %64, %42, %29, %26, %17, %2
  %.073 = phi i32 [ %15, %2 ], [ %20, %17 ], [ %27, %26 ], [ %30, %29 ], [ -12, %42 ], [ -12, %64 ], [ -12, %73 ], [ -22, %70 ], [ -12, %.lr.ph ], [ -12, %35 ]
  tail call void @av_frame_unref(ptr noundef nonnull %0)
  br label %85

85:                                               ; preds = %29, %.thread112, %82
  %.0 = phi i32 [ %.073, %.thread112 ], [ 0, %82 ], [ 0, %29 ]
  ret i32 %.0
}